target datalayout = "e-m:e-p270:32:32-p271:32:32-p272:64:64-i64:64-i128:128-f80:128-n8:16:32:64-S128"
target triple = "x86_64-pc-linux-gnu"

%struct.t_excls = type { i32, ptr }

@.str.1 = private unnamed_addr constant [8 x i8] c"[ %s ]\0A\00", align 1
@.str.2 = private unnamed_addr constant [13 x i8] c"; %4s    %s\0A\00", align 1
@.str.3 = private unnamed_addr constant [2 x i8] c"i\00", align 1
@.str.4 = private unnamed_addr constant [16 x i8] c"excluded from i\00", align 1
@.str.5 = private unnamed_addr constant [5 x i8] c"%6d \00", align 1
@.str.6 = private unnamed_addr constant [5 x i8] c" %5d\00", align 1
@.str.7 = private unnamed_addr constant [2 x i8] c"\0A\00", align 1

; Function Attrs: mustprogress uwtable
define void @_Z10print_exclP8_IO_FILEiP7t_excls(ptr noundef %0, i32 noundef %1, ptr noundef %2) #0 {
  %4 = alloca ptr, align 8
  %5 = alloca i32, align 4
  %6 = alloca ptr, align 8
  %7 = alloca i32, align 4
  %8 = alloca i8, align 1
  %9 = alloca i32, align 4
  store ptr %0, ptr %4, align 8, !tbaa !96
  store i32 %1, ptr %5, align 4, !tbaa !98
  store ptr %2, ptr %6, align 8, !tbaa !100
  call void @llvm.lifetime.start.p0(i64 4, ptr %7) #17
  call void @llvm.lifetime.start.p0(i64 1, ptr %8) #17
  call void @llvm.lifetime.start.p0(i64 4, ptr %9) #17
  store i8 0, ptr %8, align 1, !tbaa !59
  store i32 0, ptr %7, align 4, !tbaa !98
  br label %10

10:                                               ; preds = %29, %3
  %11 = load i32, ptr %7, align 4, !tbaa !98
  %12 = load i32, ptr %5, align 4, !tbaa !98
  %13 = icmp slt i32 %11, %12
  br i1 %13, label %14, label %18

14:                                               ; preds = %10
  %15 = load i8, ptr %8, align 1, !tbaa !59, !range !37, !noundef !38
  %16 = trunc i8 %15 to i1
  %17 = xor i1 %16, true
  br label %18

18:                                               ; preds = %14, %10
  %19 = phi i1 [ false, %10 ], [ %17, %14 ]
  br i1 %19, label %20, label %32

20:                                               ; preds = %18
  %21 = load ptr, ptr %6, align 8, !tbaa !100
  %22 = load i32, ptr %7, align 4, !tbaa !98
  %23 = sext i32 %22 to i64
  %24 = getelementptr inbounds %struct.t_excls, ptr %21, i64 %23
  %25 = getelementptr inbounds nuw %struct.t_excls, ptr %24, i32 0, i32 0
  %26 = load i32, ptr %25, align 8, !tbaa !102
  %27 = icmp sgt i32 %26, 0
  %28 = zext i1 %27 to i8
  store i8 %28, ptr %8, align 1, !tbaa !59
  br label %29

29:                                               ; preds = %20
  %30 = load i32, ptr %7, align 4, !tbaa !98
  %31 = add nsw i32 %30, 1
  store i32 %31, ptr %7, align 4, !tbaa !98
  br label %10, !llvm.loop !104

32:                                               ; preds = %18
  %33 = load i8, ptr %8, align 1, !tbaa !59, !range !37, !noundef !38
  %34 = trunc i8 %33 to i1
  br i1 %34, label %35, label %96

35:                                               ; preds = %32
  %36 = load ptr, ptr %4, align 8, !tbaa !96
  %37 = call noundef ptr @_Z17enumValueToString9Directive(i32 noundef 19)
  %38 = call i32 (ptr, ptr, ...) @fprintf(ptr noundef %36, ptr noundef @.str.1, ptr noundef %37) #17
  %39 = load ptr, ptr %4, align 8, !tbaa !96
  %40 = call i32 (ptr, ptr, ...) @fprintf(ptr noundef %39, ptr noundef @.str.2, ptr noundef @.str.3, ptr noundef @.str.4) #17
  store i32 0, ptr %7, align 4, !tbaa !98
  br label %41

41:                                               ; preds = %88, %35
  %42 = load i32, ptr %7, align 4, !tbaa !98
  %43 = load i32, ptr %5, align 4, !tbaa !98
  %44 = icmp slt i32 %42, %43
  br i1 %44, label %45, label %91

45:                                               ; preds = %41
  %46 = load ptr, ptr %6, align 8, !tbaa !100
  %47 = load i32, ptr %7, align 4, !tbaa !98
  %48 = sext i32 %47 to i64
  %49 = getelementptr inbounds %struct.t_excls, ptr %46, i64 %48
  %50 = getelementptr inbounds nuw %struct.t_excls, ptr %49, i32 0, i32 0
  %51 = load i32, ptr %50, align 8, !tbaa !102
  %52 = icmp sgt i32 %51, 0
  br i1 %52, label %53, label %87

53:                                               ; preds = %45
  %54 = load ptr, ptr %4, align 8, !tbaa !96
  %55 = load i32, ptr %7, align 4, !tbaa !98
  %56 = add nsw i32 %55, 1
  %57 = call i32 (ptr, ptr, ...) @fprintf(ptr noundef %54, ptr noundef @.str.5, i32 noundef %56) #17
  store i32 0, ptr %9, align 4, !tbaa !98
  br label %58

58:                                               ; preds = %81, %53
  %59 = load i32, ptr %9, align 4, !tbaa !98
  %60 = load ptr, ptr %6, align 8, !tbaa !100
  %61 = load i32, ptr %7, align 4, !tbaa !98
  %62 = sext i32 %61 to i64
  %63 = getelementptr inbounds %struct.t_excls, ptr %60, i64 %62
  %64 = getelementptr inbounds nuw %struct.t_excls, ptr %63, i32 0, i32 0
  %65 = load i32, ptr %64, align 8, !tbaa !102
  %66 = icmp slt i32 %59, %65
  br i1 %66, label %67, label %84

67:                                               ; preds = %58
  %68 = load ptr, ptr %4, align 8, !tbaa !96
  %69 = load ptr, ptr %6, align 8, !tbaa !100
  %70 = load i32, ptr %7, align 4, !tbaa !98
  %71 = sext i32 %70 to i64
  %72 = getelementptr inbounds %struct.t_excls, ptr %69, i64 %71
  %73 = getelementptr inbounds nuw %struct.t_excls, ptr %72, i32 0, i32 1
  %74 = load ptr, ptr %73, align 8, !tbaa !105
  %75 = load i32, ptr %9, align 4, !tbaa !98
  %76 = sext i32 %75 to i64
  %77 = getelementptr inbounds i32, ptr %74, i64 %76
  %78 = load i32, ptr %77, align 4, !tbaa !98
  %79 = add nsw i32 %78, 1
  %80 = call i32 (ptr, ptr, ...) @fprintf(ptr noundef %68, ptr noundef @.str.6, i32 noundef %79) #17
  br label %81

81:                                               ; preds = %67
  %82 = load i32, ptr %9, align 4, !tbaa !98
  %83 = add nsw i32 %82, 1
  store i32 %83, ptr %9, align 4, !tbaa !98
  br label %58, !llvm.loop !106

84:                                               ; preds = %58
  %85 = load ptr, ptr %4, align 8, !tbaa !96
  %86 = call i32 (ptr, ptr, ...) @fprintf(ptr noundef %85, ptr noundef @.str.7) #17
  br label %87

87:                                               ; preds = %84, %45
  br label %88

88:                                               ; preds = %87
  %89 = load i32, ptr %7, align 4, !tbaa !98
  %90 = add nsw i32 %89, 1
  store i32 %90, ptr %7, align 4, !tbaa !98
  br label %41, !llvm.loop !107

91:                                               ; preds = %41
  %92 = load ptr, ptr %4, align 8, !tbaa !96
  %93 = call i32 (ptr, ptr, ...) @fprintf(ptr noundef %92, ptr noundef @.str.7) #17
  %94 = load ptr, ptr %4, align 8, !tbaa !96
  %95 = call i32 @fflush(ptr noundef %94)
  br label %96

96:                                               ; preds = %91, %32
  call void @llvm.lifetime.end.p0(i64 4, ptr %9) #17
  call void @llvm.lifetime.end.p0(i64 1, ptr %8) #17
  call void @llvm.lifetime.end.p0(i64 4, ptr %7) #17
  ret void
}