; Function Attrs: mustprogress uwtable
define void @_Z10print_exclP8_IO_FILEiP7t_excls(ptr noundef captures(none) %0, i32 noundef %1, ptr noundef readonly captures(none) %2) local_unnamed_addr #0 {
  %4 = icmp slt i32 %1, 1
  br i1 %4, label %.critedge, label %.lr.ph.preheader

.lr.ph.preheader:                                 ; preds = %3
  %5 = zext nneg i32 %1 to i64
  br label %.lr.ph

.lr.ph:                                           ; preds = %.lr.ph.preheader, %.lr.ph
  %indvars.iv = phi i64 [ 0, %.lr.ph.preheader ], [ %indvars.iv.next, %.lr.ph ]
  %6 = getelementptr inbounds nuw %struct.t_excls, ptr %2, i64 %indvars.iv
  %7 = load i32, ptr %6, align 8, !tbaa !52
  %8 = icmp sgt i32 %7, 0
  %indvars.iv.next = add nuw nsw i64 %indvars.iv, 1
  %9 = icmp samesign uge i64 %indvars.iv.next, %5
  %.not28 = select i1 %9, i1 true, i1 %8
  br i1 %.not28, label %._crit_edge, label %.lr.ph, !llvm.loop !55

._crit_edge:                                      ; preds = %.lr.ph
  br i1 %8, label %.lr.ph37.preheader, label %.critedge

.lr.ph37.preheader:                               ; preds = %._crit_edge
  %10 = tail call noundef ptr @_Z17enumValueToString9Directive(i32 noundef 19)
  %11 = tail call i32 (ptr, ptr, ...) @fprintf(ptr noundef %0, ptr noundef nonnull @.str.1, ptr noundef %10) #24
  %12 = tail call i32 (ptr, ptr, ...) @fprintf(ptr noundef %0, ptr noundef nonnull @.str.2, ptr noundef nonnull @.str.3, ptr noundef nonnull @.str.4) #24
  %wide.trip.count = zext nneg i32 %1 to i64
  br label %.lr.ph37

.lr.ph37:                                         ; preds = %.lr.ph37.preheader, %.lr.ph37._crit_edge
  %indvars.iv43 = phi i64 [ 0, %.lr.ph37.preheader ], [ %16, %.lr.ph37._crit_edge ]
  %13 = getelementptr inbounds nuw %struct.t_excls, ptr %2, i64 %indvars.iv43
  %14 = load i32, ptr %13, align 8, !tbaa !52
  %15 = icmp sgt i32 %14, 0
  %16 = add nuw nsw i64 %indvars.iv43, 1
  br i1 %15, label %17, label %.lr.ph37._crit_edge

17:                                               ; preds = %.lr.ph37
  %18 = trunc nuw nsw i64 %16 to i32
  %19 = tail call i32 (ptr, ptr, ...) @fprintf(ptr noundef %0, ptr noundef nonnull @.str.5, i32 noundef %18) #24
  %20 = load i32, ptr %13, align 8, !tbaa !52
  %21 = icmp sgt i32 %20, 0
  br i1 %21, label %.lr.ph33, label %._crit_edge34

.lr.ph33:                                         ; preds = %17
  %22 = getelementptr inbounds nuw i8, ptr %13, i64 8
  br label %23

23:                                               ; preds = %.lr.ph33, %23
  %indvars.iv40 = phi i64 [ 0, %.lr.ph33 ], [ %indvars.iv.next41, %23 ]
  %24 = load ptr, ptr %22, align 8, !tbaa !56
  %25 = getelementptr inbounds nuw i32, ptr %24, i64 %indvars.iv40
  %26 = load i32, ptr %25, align 4, !tbaa !57
  %27 = add nsw i32 %26, 1
  %28 = tail call i32 (ptr, ptr, ...) @fprintf(ptr noundef %0, ptr noundef nonnull @.str.6, i32 noundef %27) #24
  %indvars.iv.next41 = add nuw nsw i64 %indvars.iv40, 1
  %29 = load i32, ptr %13, align 8, !tbaa !52
  %30 = sext i32 %29 to i64
  %31 = icmp slt i64 %indvars.iv.next41, %30
  br i1 %31, label %23, label %._crit_edge34, !llvm.loop !58

._crit_edge34:                                    ; preds = %23, %17
  %fputc29 = tail call i32 @fputc(i32 10, ptr %0)
  br label %.lr.ph37._crit_edge

.lr.ph37._crit_edge:                              ; preds = %.lr.ph37, %._crit_edge34
  %exitcond.not = icmp eq i64 %16, %wide.trip.count
  br i1 %exitcond.not, label %._crit_edge38, label %.lr.ph37, !llvm.loop !59

._crit_edge38:                                    ; preds = %.lr.ph37._crit_edge
  %fputc = tail call i32 @fputc(i32 10, ptr %0)
  %32 = tail call i32 @fflush(ptr noundef %0)
  br label %.critedge

.critedge:                                        ; preds = %3, %._crit_edge38, %._crit_edge
  ret void
}